; Listing generated by Microsoft (R) Optimizing Compiler Version 19.00.24245.0 

include listing.inc

INCLUDELIB LIBCMT
INCLUDELIB OLDNAMES

PUBLIC	memset
EXTRN	fillMemory:PROC
;	COMDAT pdata
pdata	SEGMENT
$pdata$memset DD imagerel $LN4
	DD	imagerel $LN4+40
	DD	imagerel $unwind$memset
pdata	ENDS
;	COMDAT xdata
xdata	SEGMENT
$unwind$memset DD 020801H
	DD	030043208H
xdata	ENDS
; Function compile flags: /Ogsp
; File d:\work\np_seamldr\gnr\po\pr\public\firmware.security.tdx.np-seamldr\seamldr_src\core\accessors64\memset64.c
;	COMDAT memset
_TEXT	SEGMENT
Start$ = 48
Val$ = 56
Len$ = 64
memset	PROC						; COMDAT

; 28   : {

$LN4:
  00000	48 8b c4	 mov	 rax, rsp
  00003	53		 push	 rbx
  00004	48 83 ec 20	 sub	 rsp, 32			; 00000020H

; 29   :   union {
; 30   :     UINT8 bytes[4];
; 31   :     UINT32 val;
; 32   :   } tmp;
; 33   :   
; 34   :   UINT8 byte = (UINT8)(Val & 0xFF);
; 35   :   
; 36   :   tmp.bytes[0] = byte;

  00008	88 50 10	 mov	 BYTE PTR [rax+16], dl
  0000b	48 8b d9	 mov	 rbx, rcx

; 37   :   tmp.bytes[1] = byte;

  0000e	88 50 11	 mov	 BYTE PTR [rax+17], dl

; 38   :   tmp.bytes[2] = byte;

  00011	88 50 12	 mov	 BYTE PTR [rax+18], dl

; 39   :   tmp.bytes[3] = byte;

  00014	88 50 13	 mov	 BYTE PTR [rax+19], dl

; 40   : 
; 41   :   fillMemory(Start, tmp.val, Len);  

  00017	8b 50 10	 mov	 edx, DWORD PTR [rax+16]
  0001a	e8 00 00 00 00	 call	 fillMemory

; 42   :   return(Start);

  0001f	48 8b c3	 mov	 rax, rbx

; 43   : }

  00022	48 83 c4 20	 add	 rsp, 32			; 00000020H
  00026	5b		 pop	 rbx
  00027	c3		 ret	 0
memset	ENDP
_TEXT	ENDS
END
