; Listing generated by Microsoft (R) Optimizing Compiler Version 19.00.24245.0 

	TITLE	D:\work\np_seamldr\gnr\po\pr\public\firmware.security.tdx.np-seamldr\seamldr_src\Projects\Server\Emr\Seamldr\SeamldrEntry.c
	.686P
	.XMM
	include listing.inc
	.model	flat

INCLUDELIB LIBCMT
INCLUDELIB OLDNAMES

PUBLIC	_ChipsetAcmType
PUBLIC	_TxtErrorRegister
EDATA32	SEGMENT
_ChipsetAcmType DD 00H
_TxtErrorRegister DD 0fed20328H
EDATA32	ENDS
PUBLIC	_ProjectAcmEntryPoint
EXTRN	_SeamldrThunk64:PROC
EXTRN	_Init64bitComArea:PROC
EXTRN	_EstablishSeamldrPaging:PROC
EXTRN	_SeamldrCom64Data:BYTE
; Function compile flags: /Ogsp
; File d:\work\np_seamldr\gnr\po\pr\public\firmware.security.tdx.np-seamldr\seamldr_src\projects\server\emr\seamldr\seamldrentry.c
;	COMDAT _ProjectAcmEntryPoint
_TEXT	SEGMENT
_PtCtx$ = -40						; size = 40
_ProjectAcmEntryPoint PROC				; COMDAT

; 28   : {

  00000	55		 push	 ebp
  00001	8b ec		 mov	 ebp, esp
  00003	83 ec 28	 sub	 esp, 40			; 00000028H

; 29   :   PT_CTX PtCtx;
; 30   : 
; 31   :   Init64bitComArea();

  00006	e8 00 00 00 00	 call	 _Init64bitComArea

; 32   : 
; 33   :   EstablishSeamldrPaging(&SeamldrCom64Data, &PtCtx);

  0000b	8d 45 d8	 lea	 eax, DWORD PTR _PtCtx$[ebp]
  0000e	50		 push	 eax
  0000f	68 00 00 00 00	 push	 OFFSET _SeamldrCom64Data
  00014	e8 00 00 00 00	 call	 _EstablishSeamldrPaging

; 34   : 
; 35   :   SeamldrCom64Data.PtCtxPtr = (UINT64)(UINTPTR)&PtCtx;

  00019	83 25 62 00 00
	00 00		 and	 DWORD PTR _SeamldrCom64Data+98, 0
  00020	8d 45 d8	 lea	 eax, DWORD PTR _PtCtx$[ebp]
  00023	59		 pop	 ecx
  00024	59		 pop	 ecx
  00025	a3 5e 00 00 00	 mov	 DWORD PTR _SeamldrCom64Data+94, eax

; 36   : 
; 37   :   SeamldrThunk64();

  0002a	e8 00 00 00 00	 call	 _SeamldrThunk64

; 38   : 
; 39   :   // No return to here
; 40   : }

  0002f	8b e5		 mov	 esp, ebp
  00031	5d		 pop	 ebp
  00032	c3		 ret	 0
_ProjectAcmEntryPoint ENDP
_TEXT	ENDS
END
