; Listing generated by Microsoft (R) Optimizing Compiler Version 19.00.24210.0 

	TITLE	C:\Users\jwhur\Downloads\seam-loader\seam-loader-main-1.5\np-seam-loader\seamldr_src\Core\Common\Header.c
	.686P
	.XMM
	include listing.inc
	.model	flat

INCLUDELIB LIBCMT
INCLUDELIB OLDNAMES

PUBLIC	_HeaderStart
PUBLIC	_AcmInfoTableStart
PUBLIC	_ChipsetIdTbl
PUBLIC	_ProcessorIdTbl
PUBLIC	_TpmCapabilitiesTbl
PUBLIC	_GenCoreVersionInfoTbl
EXTRN	_AcmEntryPoint:PROC
EXTRN	_GdtBasePtr:BYTE
ADATA32	SEGMENT
_HeaderStart DW	02H
	DW	00H
	DD	0e0H
	DD	030000H
	DW	00H
	DW	00H
	DD	08086H
	DD	00H
	DD	0620H
	DW	00H
	DW	04H
	DD	00H
	DD	00H
	DD	020H
	DD	FLAT:_GdtBasePtr
	DD	08H
	DD	FLAT:_AcmEntryPoint
	DB	00H
	ORG $+63
	DD	060H
	DD	0d0H
	DB	00H
	ORG $+383
	DB	00H
	ORG $+383
	DB	00H
	ORG $+831
_AcmInfoTableStart DD 07fc03aaaH
	DD	018db46a7H
	DD	08f69ac2eH
	DD	05a7f418dH
	DB	00H
	DB	07H
	DW	034H
	DD	06f4H
	DD	00H
	DD	020000H
	DD	00H
	DB	00H
	DB	00H
	DB	04H
	DB	05H
	DD	0708H
	DD	0724H
	DD	072aH
_ChipsetIdTbl DD 01H
	DD	01H
	DW	08086H
	DW	00H
	DW	01H
	DW	00H
	DD	00H
_ProcessorIdTbl DD 01H
	DD	0a06d0H
	DD	0fff3ff0H
	DQ	0000000000000000H
	DQ	0000000000000000H
_TpmCapabilitiesTbl DD 00H
	DW	00H
_GenCoreVersionInfoTbl DB 00H
	DW	02H
	DB	01H
	DB	01H
	DB	00H
ADATA32	ENDS
END
