; Listing generated by Microsoft (R) Optimizing Compiler Version 19.00.24245.0 

	TITLE	D:\work\np_seamldr\gnr\po\pr\public\firmware.security.tdx.np-seamldr\seamldr_src\Core\Common\Multiply.c
	.686P
	.XMM
	include listing.inc
	.model	flat

INCLUDELIB LIBCMT
INCLUDELIB OLDNAMES

PUBLIC	__allmul
; Function compile flags: /Ogsp
; File d:\work\np_seamldr\gnr\po\pr\public\firmware.security.tdx.np-seamldr\seamldr_src\core\common\multiply.c
;	COMDAT __allmul
_TEXT	SEGMENT
__allmul PROC						; COMDAT

; 53   :   _asm {
; 54   :     push ebx

  00000	53		 push	 ebx

; 55   :     mov ebx, [esp + 08h]; X_L

  00001	8b 5c 24 08	 mov	 ebx, DWORD PTR [esp+8]

; 56   :     mov eax, [esp + 10h]; Y_L

  00005	8b 44 24 10	 mov	 eax, DWORD PTR [esp+16]

; 57   :     mov edx, [esp + 0Ch]; X_H

  00009	8b 54 24 0c	 mov	 edx, DWORD PTR [esp+12]

; 58   :     mov ecx, [esp + 14h]; Y_H

  0000d	8b 4c 24 14	 mov	 ecx, DWORD PTR [esp+20]

; 59   :     imul ecx, ebx; Y_H *X_L

  00011	0f af cb	 imul	 ecx, ebx

; 60   :     imul edx, eax; X_H *Y_L

  00014	0f af d0	 imul	 edx, eax

; 61   :     add ecx, edx; XL_YH + XH_YL

  00017	03 ca		 add	 ecx, edx

; 62   :     mul ebx; XL *YL

  00019	f7 e3		 mul	 ebx

; 63   :     add edx, ecx; ((XL * YL) >> 32) + XL_YH + XH_YL

  0001b	03 d1		 add	 edx, ecx

; 64   :     pop ebx

  0001d	5b		 pop	 ebx

; 65   :     ret     16; we have to pop arguments off stack

  0001e	c2 10 00	 ret	 16			; 00000010H
__allmul ENDP
_TEXT	ENDS
END
